; Function Attrs: null_pointer_is_valid sspstrong uwtable
define internal i32 @dissect_rtitcp(ptr noundef %0, ptr noundef %1, ptr noundef %2, ptr noundef %3) #0 {
  %5 = tail call i32 @tvb_captured_length(ptr noundef %0)
  %6 = icmp ult i32 %5, 8
  br i1 %6, label %13, label %7

7:                                                ; preds = %4
  %8 = tail call i32 @tvb_get_ntohl(ptr noundef %0, i32 noundef 4)
  %.not = icmp eq i32 %8, -581640875
  br i1 %.not, label %9, label %13

9:                                                ; preds = %7
  %10 = getelementptr inbounds nuw i8, ptr %1, i64 8
  %11 = load ptr, ptr %10, align 8
  tail call void @col_clear(ptr noundef %11, i32 noundef 25)
  tail call void @tcp_dissect_pdus(ptr noundef %0, ptr noundef %1, ptr noundef %2, i1 noundef zeroext true, i32 noundef 8, ptr noundef nonnull @get_rtitcp_pdu_len, ptr noundef nonnull @dissect_rtitcp_common, ptr noundef %3)
  %12 = tail call i32 @tvb_captured_length(ptr noundef %0)
  br label %13

13:                                               ; preds = %7, %4, %9
  %.0 = phi i32 [ %12, %9 ], [ 0, %4 ], [ 0, %7 ]
  ret i32 %.0
}